target datalayout = "e-m:e-p270:32:32-p271:32:32-p272:64:64-i64:64-i128:128-f80:128-n8:16:32:64-S128"
target triple = "x86_64-pc-linux-gnu"

%"class.pxrInternal_v0_24__pxrReserved__::GfVec3d" = type { [3 x double] }

; Function Attrs: mustprogress nounwind uwtable
define linkonce_odr void @_ZN32pxrInternal_v0_24__pxrReserved__7GfVec3dC2Eddd(ptr noundef nonnull align 8 dereferenceable(24) %0, double noundef %1, double noundef %2, double noundef %3) unnamed_addr #0 comdat align 2 {
  %5 = alloca ptr, align 8
  %6 = alloca double, align 8
  %7 = alloca double, align 8
  %8 = alloca double, align 8
  store ptr %0, ptr %5, align 8
  store double %1, ptr %6, align 8
  store double %2, ptr %7, align 8
  store double %3, ptr %8, align 8
  %9 = load ptr, ptr %5, align 8
  %10 = getelementptr inbounds nuw %"class.pxrInternal_v0_24__pxrReserved__::GfVec3d", ptr %9, i32 0, i32 0
  %11 = load double, ptr %6, align 8
  store double %11, ptr %10, align 8
  %12 = getelementptr inbounds double, ptr %10, i64 1
  %13 = load double, ptr %7, align 8
  store double %13, ptr %12, align 8
  %14 = getelementptr inbounds double, ptr %10, i64 2
  %15 = load double, ptr %8, align 8
  store double %15, ptr %14, align 8
  ret void
}

; Function Attrs: mustprogress nounwind uwtable
define linkonce_odr noundef nonnull align 8 dereferenceable(8) ptr @_ZNK32pxrInternal_v0_24__pxrReserved__7GfVec3dixEm(ptr noundef nonnull align 8 dereferenceable(24) %0, i64 noundef %1) #0 comdat align 2 {
  %3 = alloca ptr, align 8
  %4 = alloca i64, align 8
  store ptr %0, ptr %3, align 8
  store i64 %1, ptr %4, align 8
  %5 = load ptr, ptr %3, align 8
  %6 = getelementptr inbounds nuw %"class.pxrInternal_v0_24__pxrReserved__::GfVec3d", ptr %5, i32 0, i32 0
  %7 = load i64, ptr %4, align 8
  %8 = getelementptr inbounds [3 x double], ptr %6, i64 0, i64 %7
  ret ptr %8
}

; Function Attrs: mustprogress uwtable
define void @_ZN32pxrInternal_v0_24__pxrReserved__12GfApplyGammaERKNS_7GfVec3dEd(ptr dead_on_unwind noalias writable sret(%"class.pxrInternal_v0_24__pxrReserved__::GfVec3d") align 8 %0, ptr noundef nonnull align 8 dereferenceable(24) %1, double noundef %2) #1 {
  %4 = alloca ptr, align 8
  %5 = alloca double, align 8
  store ptr %1, ptr %4, align 8
  store double %2, ptr %5, align 8
  %6 = load ptr, ptr %4, align 8
  %7 = call noundef nonnull align 8 dereferenceable(8) ptr @_ZNK32pxrInternal_v0_24__pxrReserved__7GfVec3dixEm(ptr noundef nonnull align 8 dereferenceable(24) %6, i64 noundef 0)
  %8 = load double, ptr %7, align 8
  %9 = load double, ptr %5, align 8
  %10 = call double @pow(double noundef %8, double noundef %9) #6
  %11 = load ptr, ptr %4, align 8
  %12 = call noundef nonnull align 8 dereferenceable(8) ptr @_ZNK32pxrInternal_v0_24__pxrReserved__7GfVec3dixEm(ptr noundef nonnull align 8 dereferenceable(24) %11, i64 noundef 1)
  %13 = load double, ptr %12, align 8
  %14 = load double, ptr %5, align 8
  %15 = call double @pow(double noundef %13, double noundef %14) #6
  %16 = load ptr, ptr %4, align 8
  %17 = call noundef nonnull align 8 dereferenceable(8) ptr @_ZNK32pxrInternal_v0_24__pxrReserved__7GfVec3dixEm(ptr noundef nonnull align 8 dereferenceable(24) %16, i64 noundef 2)
  %18 = load double, ptr %17, align 8
  %19 = load double, ptr %5, align 8
  %20 = call double @pow(double noundef %18, double noundef %19) #6
  call void @_ZN32pxrInternal_v0_24__pxrReserved__7GfVec3dC2Eddd(ptr noundef nonnull align 8 dereferenceable(24) %0, double noundef %10, double noundef %15, double noundef %20)
  ret void
}