; Function Attrs: mustprogress nofree nounwind willreturn memory(write, argmem: readwrite) uwtable
define void @_ZN32pxrInternal_v0_24__pxrReserved__12GfApplyGammaERKNS_7GfVec3dEd(ptr dead_on_unwind noalias writable writeonly sret(%"class.pxrInternal_v0_24__pxrReserved__::GfVec3d") align 8 captures(none) initializes((0, 24)) %0, ptr noundef nonnull readonly align 8 captures(none) dereferenceable(24) %1, double noundef %2) local_unnamed_addr #1 {
  %4 = load double, ptr %1, align 8
  %5 = tail call double @pow(double noundef %4, double noundef %2) #8
  %6 = getelementptr inbounds nuw i8, ptr %1, i64 8
  %7 = load double, ptr %6, align 8
  %8 = tail call double @pow(double noundef %7, double noundef %2) #8
  %9 = getelementptr inbounds nuw i8, ptr %1, i64 16
  %10 = load double, ptr %9, align 8
  %11 = tail call double @pow(double noundef %10, double noundef %2) #8
  store double %5, ptr %0, align 8
  %12 = getelementptr inbounds nuw i8, ptr %0, i64 8
  store double %8, ptr %12, align 8
  %13 = getelementptr inbounds nuw i8, ptr %0, i64 16
  store double %11, ptr %13, align 8
  ret void
}